; Function Attrs: nounwind uwtable
define internal noundef ptr @readline_insert_text(ptr readnone captures(none) %0, ptr noundef %1) #0 {
  %3 = tail call ptr @PyUnicode_EncodeLocale(ptr noundef %1, ptr noundef nonnull @.str.34) #14
  %4 = icmp eq ptr %3, null
  br i1 %4, label %Py_DECREF.exit, label %5

5:                                                ; preds = %2
  %6 = getelementptr inbounds nuw i8, ptr %3, i64 32
  %7 = tail call i32 @rl_insert_text(ptr noundef nonnull %6) #14
  %8 = load i32, ptr %3, align 8, !tbaa !25
  %.not.i = icmp sgt i32 %8, -1
  br i1 %.not.i, label %9, label %Py_DECREF.exit

9:                                                ; preds = %5
  %10 = add nsw i32 %8, -1
  store i32 %10, ptr %3, align 8, !tbaa !25
  %11 = icmp eq i32 %10, 0
  br i1 %11, label %12, label %Py_DECREF.exit

12:                                               ; preds = %9
  tail call void @_Py_Dealloc(ptr noundef nonnull %3) #14
  br label %Py_DECREF.exit

Py_DECREF.exit:                                   ; preds = %12, %9, %5, %2
  %.0 = phi ptr [ null, %2 ], [ @_Py_NoneStruct, %5 ], [ @_Py_NoneStruct, %9 ], [ @_Py_NoneStruct, %12 ]
  ret ptr %.0
}